target datalayout = "e-m:e-p270:32:32-p271:32:32-p272:64:64-i64:64-i128:128-f80:128-n8:16:32:64-S128"
target triple = "x86_64-pc-linux-gnu"

%struct._object = type { %union.anon, ptr }
%union.anon = type { i64 }
%struct._PyOnceFlag = type { i8 }
%struct.PyMutex = type { i8 }
%struct._xid_lookup_state = type { %struct._PyXIData_registry_t }
%struct._PyXIData_registry_t = type { i32, i32, %struct.PyMutex, ptr }
%struct.llist_node = type { ptr, ptr }
%struct.PyWideStringList = type { i64, ptr }
%struct._pending_calls = type { ptr, %struct.PyMutex, i32, i32, i32, [300 x %struct._pending_call], i32, i32 }
%struct._pending_call = type { ptr, ptr, i32 }
%struct._stoptheworld_state = type { %struct.PyMutex, i8, i8, i8, %struct.PyEvent, i64, ptr }
%struct.PyEvent = type { i8 }
%struct.PyGC_Head = type { i64, i64 }
%struct._is = type { %struct._ceval_state, ptr, i64, i64, i32, i64, i32, i32, i32, i64, %struct.pythreads, ptr, ptr, i64, %struct._gc_runtime_state, ptr, ptr, %struct._import_state, %struct._gil_runtime_state, %struct.codecs_state, %struct.PyConfig, i64, ptr, ptr, ptr, ptr, [8 x ptr], i8, i64, [255 x ptr], %struct._PyXI_state_t, ptr, ptr, ptr, %struct._warnings_runtime_state, %struct.atexit_state, %struct._stoptheworld_state, %struct._qsbr_shared, ptr, ptr, [8 x ptr], [8 x ptr], [8 x ptr], i8, i8, %struct._py_object_state, %struct._Py_unicode_state, %struct._Py_long_state, %struct._dtoa_state, %struct._py_func_state, %struct._py_code_state, %struct._Py_dict_state, %struct._Py_exc_state, %struct._Py_mem_interp_free_queue, %struct.ast_state, %struct.types_state, %struct.callable_cache, i8, ptr, i64, %struct._rare_events, ptr, %struct._Py_GlobalMonitors, i8, i8, i64, i64, [8 x [19 x ptr]], [8 x ptr], [8 x i64], %struct._Py_interp_cached_objects, %struct._Py_interp_static_objects, i64, %struct._PyThreadStateImpl }
%struct._ceval_state = type { i64, i32, ptr, i32, %struct._pending_calls }
%struct.pythreads = type { i64, ptr, ptr, ptr, i64, i64 }
%struct._gc_runtime_state = type { ptr, i32, i32, i32, %struct.gc_generation, [2 x %struct.gc_generation], %struct.gc_generation, [3 x %struct.gc_generation_stats], i32, ptr, ptr, i64, i64, i32, i32 }
%struct.gc_generation = type { %struct.PyGC_Head, i32, i32 }
%struct.gc_generation_stats = type { i64, i64, i64 }
%struct._import_state = type { ptr, ptr, ptr, i32, i32, i32, ptr, %struct._PyRecursiveMutex, %struct.anon.1 }
%struct._PyRecursiveMutex = type { %struct.PyMutex, i64, i64 }
%struct.anon.1 = type { i32, i64, i32 }
%struct._gil_runtime_state = type { i64, ptr, i32, i64, %union.pthread_cond_t, %union.pthread_mutex_t, %union.pthread_cond_t, %union.pthread_mutex_t }
%union.pthread_cond_t = type { %struct.__pthread_cond_s }
%struct.__pthread_cond_s = type { %union.__atomic_wide_counter, %union.__atomic_wide_counter, [2 x i32], [2 x i32], i32, i32, [2 x i32] }
%union.__atomic_wide_counter = type { i64 }
%union.pthread_mutex_t = type { %struct.__pthread_mutex_s }
%struct.__pthread_mutex_s = type { i32, i32, i32, i32, i32, i16, i16, %struct.__pthread_internal_list }
%struct.__pthread_internal_list = type { ptr, ptr }
%struct.codecs_state = type { ptr, ptr, ptr, i32 }
%struct.PyConfig = type { i32, i32, i32, i32, i32, i32, i64, i32, i32, i32, i32, i32, i32, i32, ptr, i32, ptr, ptr, ptr, i32, %struct.PyWideStringList, %struct.PyWideStringList, %struct.PyWideStringList, %struct.PyWideStringList, i32, i32, i32, i32, i32, i32, i32, i32, i32, i32, i32, i32, i32, ptr, ptr, ptr, i32, i32, i32, i32, i32, ptr, ptr, ptr, ptr, i32, %struct.PyWideStringList, ptr, ptr, ptr, ptr, ptr, ptr, ptr, i32, ptr, ptr, ptr, ptr, i32, i32, i32 }
%struct._PyXI_state_t = type { %struct._xid_lookup_state, %struct.xi_exceptions }
%struct.xi_exceptions = type { ptr, ptr, ptr }
%struct._warnings_runtime_state = type { ptr, ptr, ptr, %struct._PyRecursiveMutex, i64 }
%struct.atexit_state = type { ptr, ptr }
%struct._qsbr_shared = type { i64, i64, ptr, i64, %struct.PyMutex, ptr }
%struct._py_object_state = type { %struct._Py_freelists, i32 }
%struct._Py_freelists = type { %struct._Py_freelist, %struct._Py_freelist, [20 x %struct._Py_freelist], %struct._Py_freelist, %struct._Py_freelist, %struct._Py_freelist, %struct._Py_freelist, %struct._Py_freelist, %struct._Py_freelist, %struct._Py_freelist, %struct._Py_freelist, %struct._Py_freelist, %struct._Py_freelist, %struct._Py_freelist, %struct._Py_freelist, %struct._Py_freelist }
%struct._Py_freelist = type { ptr, i64 }
%struct._Py_unicode_state = type { %struct._Py_unicode_fs_codec, ptr, %struct._Py_unicode_ids }
%struct._Py_unicode_fs_codec = type { ptr, i32, ptr, i32 }
%struct._Py_unicode_ids = type { i64, ptr }
%struct._Py_long_state = type { i32 }
%struct._dtoa_state = type { [8 x ptr], [8 x ptr], [288 x double], ptr }
%struct._py_func_state = type { i32, [4096 x %struct._func_version_cache_item] }
%struct._func_version_cache_item = type { ptr, ptr }
%struct._py_code_state = type { %struct.PyMutex, ptr }
%struct._Py_dict_state = type { i32, [8 x ptr] }
%struct._Py_exc_state = type { ptr, ptr, i32, ptr }
%struct._Py_mem_interp_free_queue = type { i32, %struct.PyMutex, %struct.llist_node }
%struct.ast_state = type { %struct._PyOnceFlag, i32, ptr, ptr, ptr, ptr, ptr, ptr, ptr, ptr, ptr, ptr, ptr, ptr, ptr, ptr, ptr, ptr, ptr, ptr, ptr, ptr, ptr, ptr, ptr, ptr, ptr, ptr, ptr, ptr, ptr, ptr, ptr, ptr, ptr, ptr, ptr, ptr, ptr, ptr, ptr, ptr, ptr, ptr, ptr, ptr, ptr, ptr, ptr, ptr, ptr, ptr, ptr, ptr, ptr, ptr, ptr, ptr, ptr, ptr, ptr, ptr, ptr, ptr, ptr, ptr, ptr, ptr, ptr, ptr, ptr, ptr, ptr, ptr, ptr, ptr, ptr, ptr, ptr, ptr, ptr, ptr, ptr, ptr, ptr, ptr, ptr, ptr, ptr, ptr, ptr, ptr, ptr, ptr, ptr, ptr, ptr, ptr, ptr, ptr, ptr, ptr, ptr, ptr, ptr, ptr, ptr, ptr, ptr, ptr, ptr, ptr, ptr, ptr, ptr, ptr, ptr, ptr, ptr, ptr, ptr, ptr, ptr, ptr, ptr, ptr, ptr, ptr, ptr, ptr, ptr, ptr, ptr, ptr, ptr, ptr, ptr, ptr, ptr, ptr, ptr, ptr, ptr, ptr, ptr, ptr, ptr, ptr, ptr, ptr, ptr, ptr, ptr, ptr, ptr, ptr, ptr, ptr, ptr, ptr, ptr, ptr, ptr, ptr, ptr, ptr, ptr, ptr, ptr, ptr, ptr, ptr, ptr, ptr, ptr, ptr, ptr, ptr, ptr, ptr, ptr, ptr, ptr, ptr, ptr, ptr, ptr, ptr, ptr, ptr, ptr, ptr, ptr, ptr, ptr, ptr, ptr, ptr, ptr, ptr, ptr, ptr, ptr, ptr, ptr, ptr, ptr, ptr, ptr, ptr, ptr, ptr, ptr, ptr, ptr, ptr, ptr, ptr, ptr, ptr, ptr, ptr, ptr, ptr, ptr, ptr, ptr, ptr, ptr, ptr, ptr, ptr, ptr, ptr, ptr, ptr, ptr, ptr, ptr, ptr, ptr, ptr, ptr, ptr, ptr }
%struct.types_state = type { i32, %struct.type_cache, %struct.anon.3, %struct.anon.4, %struct.PyMutex, [4096 x ptr] }
%struct.type_cache = type { [4096 x %struct.type_cache_entry] }
%struct.type_cache_entry = type { i32, ptr, ptr }
%struct.anon.3 = type { i64, [200 x %struct.managed_static_type_state] }
%struct.managed_static_type_state = type { ptr, i32, i32, i32, ptr, ptr, ptr }
%struct.anon.4 = type { i64, i64, [10 x %struct.managed_static_type_state] }
%struct.callable_cache = type { ptr, ptr, ptr, ptr }
%struct._rare_events = type { i8, i8, i8, i8, i8 }
%struct._Py_GlobalMonitors = type { [16 x i8] }
%struct._Py_interp_cached_objects = type { ptr, ptr, ptr, [10 x ptr], ptr, ptr, ptr, ptr, ptr, ptr, ptr }
%struct._Py_interp_static_objects = type { %struct.anon.5 }
%struct.anon.5 = type { i32, %struct.PyGC_Head, %struct.PyHamtObject, %struct.PyBaseExceptionObject }
%struct.PyHamtObject = type { %struct._object, ptr, ptr, i64 }
%struct.PyBaseExceptionObject = type { %struct._object, ptr, ptr, ptr, ptr, ptr, ptr, i8 }
%struct._PyThreadStateImpl = type { %struct._ts, ptr, ptr, ptr, %struct.llist_node }
%struct._ts = type { ptr, ptr, ptr, i64, %struct.anon.0, i32, i32, i32, i32, i32, i32, i32, i32, ptr, ptr, ptr, ptr, ptr, ptr, ptr, ptr, i32, ptr, i64, i64, ptr, i64, i32, ptr, ptr, ptr, i64, i64, ptr, ptr, ptr, %struct._err_stackitem, ptr, i64, ptr, ptr }
%struct.anon.0 = type { i32 }
%struct._err_stackitem = type { ptr, ptr }

@.str.262 = private unnamed_addr constant [13 x i8] c"{sksksksksk}\00", align 1
@.str.263 = private unnamed_addr constant [10 x i8] c"set_class\00", align 1
@.str.264 = private unnamed_addr constant [10 x i8] c"set_bases\00", align 1
@.str.265 = private unnamed_addr constant [20 x i8] c"set_eval_frame_func\00", align 1
@.str.266 = private unnamed_addr constant [13 x i8] c"builtin_dict\00", align 1
@.str.267 = private unnamed_addr constant [18 x i8] c"func_modification\00", align 1

; Function Attrs: nounwind uwtable
define internal ptr @get_rare_event_counters(ptr noundef %0, ptr noundef %1) #0 {
  %3 = alloca ptr, align 8
  %4 = alloca ptr, align 8
  %5 = alloca ptr, align 8
  store ptr %0, ptr %3, align 8, !tbaa !3
  store ptr %1, ptr %4, align 8, !tbaa !3
  call void @llvm.lifetime.start.p0(i64 8, ptr %5) #10
  %6 = call ptr @PyInterpreterState_Get()
  store ptr %6, ptr %5, align 8, !tbaa !49
  %7 = load ptr, ptr %5, align 8, !tbaa !49
  %8 = getelementptr inbounds nuw %struct._is, ptr %7, i32 0, i32 60
  %9 = getelementptr inbounds nuw %struct._rare_events, ptr %8, i32 0, i32 0
  %10 = load i8, ptr %9, align 8, !tbaa !244
  %11 = zext i8 %10 to i64
  %12 = load ptr, ptr %5, align 8, !tbaa !49
  %13 = getelementptr inbounds nuw %struct._is, ptr %12, i32 0, i32 60
  %14 = getelementptr inbounds nuw %struct._rare_events, ptr %13, i32 0, i32 1
  %15 = load i8, ptr %14, align 1, !tbaa !245
  %16 = zext i8 %15 to i64
  %17 = load ptr, ptr %5, align 8, !tbaa !49
  %18 = getelementptr inbounds nuw %struct._is, ptr %17, i32 0, i32 60
  %19 = getelementptr inbounds nuw %struct._rare_events, ptr %18, i32 0, i32 2
  %20 = load i8, ptr %19, align 2, !tbaa !246
  %21 = zext i8 %20 to i64
  %22 = load ptr, ptr %5, align 8, !tbaa !49
  %23 = getelementptr inbounds nuw %struct._is, ptr %22, i32 0, i32 60
  %24 = getelementptr inbounds nuw %struct._rare_events, ptr %23, i32 0, i32 3
  %25 = load i8, ptr %24, align 1, !tbaa !247
  %26 = zext i8 %25 to i64
  %27 = load ptr, ptr %5, align 8, !tbaa !49
  %28 = getelementptr inbounds nuw %struct._is, ptr %27, i32 0, i32 60
  %29 = getelementptr inbounds nuw %struct._rare_events, ptr %28, i32 0, i32 4
  %30 = load i8, ptr %29, align 4, !tbaa !248
  %31 = zext i8 %30 to i64
  %32 = call ptr (ptr, ...) @Py_BuildValue(ptr noundef @.str.262, ptr noundef @.str.263, i64 noundef %11, ptr noundef @.str.264, i64 noundef %16, ptr noundef @.str.265, i64 noundef %21, ptr noundef @.str.266, i64 noundef %26, ptr noundef @.str.267, i64 noundef %31)
  call void @llvm.lifetime.end.p0(i64 8, ptr %5) #10
  ret ptr %32
}