; Function Attrs: nounwind uwtable
define internal ptr @get_rare_event_counters(ptr readnone captures(none) %0, ptr readnone captures(none) %1) #0 {
  %3 = tail call ptr @PyInterpreterState_Get() #11
  %4 = getelementptr inbounds nuw i8, ptr %3, i64 222992
  %5 = load i8, ptr %4, align 8, !tbaa !257
  %6 = zext i8 %5 to i64
  %7 = getelementptr inbounds nuw i8, ptr %3, i64 222993
  %8 = load i8, ptr %7, align 1, !tbaa !258
  %9 = zext i8 %8 to i64
  %10 = getelementptr inbounds nuw i8, ptr %3, i64 222994
  %11 = load i8, ptr %10, align 2, !tbaa !259
  %12 = zext i8 %11 to i64
  %13 = getelementptr inbounds nuw i8, ptr %3, i64 222995
  %14 = load i8, ptr %13, align 1, !tbaa !260
  %15 = zext i8 %14 to i64
  %16 = getelementptr inbounds nuw i8, ptr %3, i64 222996
  %17 = load i8, ptr %16, align 4, !tbaa !261
  %18 = zext i8 %17 to i64
  %19 = tail call ptr (ptr, ...) @Py_BuildValue(ptr noundef nonnull @.str.262, ptr noundef nonnull @.str.263, i64 noundef %6, ptr noundef nonnull @.str.264, i64 noundef %9, ptr noundef nonnull @.str.265, i64 noundef %12, ptr noundef nonnull @.str.266, i64 noundef %15, ptr noundef nonnull @.str.267, i64 noundef %18) #11
  ret ptr %19
}